target datalayout = "e-m:e-p270:32:32-p271:32:32-p272:64:64-i64:64-i128:128-f80:128-n8:16:32:64-S128"
target triple = "x86_64-pc-linux-gnu"

%struct.AVMotionEstContext = type { ptr, ptr, i32, i32, i32, i32, i32, i32, i32, i32, i32, i32, i32, [2 x %struct.AVMotionEstPredictor], ptr }
%struct.AVMotionEstPredictor = type { [10 x [2 x i32]], i32 }

; Function Attrs: alwaysinline nounwind willreturn memory(none) uwtable
define internal i32 @av_clip_c(i32 noundef %0, i32 noundef %1, i32 noundef %2) #7 {
  %4 = alloca i32, align 4
  %5 = alloca i32, align 4
  %6 = alloca i32, align 4
  %7 = alloca i32, align 4
  store i32 %0, ptr %5, align 4, !tbaa !34
  store i32 %1, ptr %6, align 4, !tbaa !34
  store i32 %2, ptr %7, align 4, !tbaa !34
  %8 = load i32, ptr %5, align 4, !tbaa !34
  %9 = load i32, ptr %6, align 4, !tbaa !34
  %10 = icmp slt i32 %8, %9
  br i1 %10, label %11, label %13

11:                                               ; preds = %3
  %12 = load i32, ptr %6, align 4, !tbaa !34
  store i32 %12, ptr %4, align 4
  br label %21

13:                                               ; preds = %3
  %14 = load i32, ptr %5, align 4, !tbaa !34
  %15 = load i32, ptr %7, align 4, !tbaa !34
  %16 = icmp sgt i32 %14, %15
  br i1 %16, label %17, label %19

17:                                               ; preds = %13
  %18 = load i32, ptr %7, align 4, !tbaa !34
  store i32 %18, ptr %4, align 4
  br label %21

19:                                               ; preds = %13
  %20 = load i32, ptr %5, align 4, !tbaa !34
  store i32 %20, ptr %4, align 4
  br label %21

21:                                               ; preds = %19, %17, %11
  %22 = load i32, ptr %4, align 4
  ret i32 %22
}

; Function Attrs: nounwind uwtable
define internal i64 @get_sbad(ptr noundef %0, i32 noundef %1, i32 noundef %2, i32 noundef %3, i32 noundef %4) #1 {
  %6 = alloca ptr, align 8
  %7 = alloca i32, align 4
  %8 = alloca i32, align 4
  %9 = alloca i32, align 4
  %10 = alloca i32, align 4
  %11 = alloca ptr, align 8
  %12 = alloca ptr, align 8
  %13 = alloca i32, align 4
  %14 = alloca i32, align 4
  %15 = alloca i32, align 4
  %16 = alloca i32, align 4
  %17 = alloca i32, align 4
  %18 = alloca i32, align 4
  %19 = alloca i32, align 4
  %20 = alloca i64, align 8
  store ptr %0, ptr %6, align 8, !tbaa !66
  store i32 %1, ptr %7, align 4, !tbaa !34
  store i32 %2, ptr %8, align 4, !tbaa !34
  store i32 %3, ptr %9, align 4, !tbaa !34
  store i32 %4, ptr %10, align 4, !tbaa !34
  call void @llvm.lifetime.start.p0(i64 8, ptr %11) #12
  %21 = load ptr, ptr %6, align 8, !tbaa !66
  %22 = getelementptr inbounds nuw %struct.AVMotionEstContext, ptr %21, i32 0, i32 0
  %23 = load ptr, ptr %22, align 8, !tbaa !152
  store ptr %23, ptr %11, align 8, !tbaa !102
  call void @llvm.lifetime.start.p0(i64 8, ptr %12) #12
  %24 = load ptr, ptr %6, align 8, !tbaa !66
  %25 = getelementptr inbounds nuw %struct.AVMotionEstContext, ptr %24, i32 0, i32 1
  %26 = load ptr, ptr %25, align 8, !tbaa !153
  store ptr %26, ptr %12, align 8, !tbaa !102
  call void @llvm.lifetime.start.p0(i64 4, ptr %13) #12
  %27 = load ptr, ptr %6, align 8, !tbaa !66
  %28 = getelementptr inbounds nuw %struct.AVMotionEstContext, ptr %27, i32 0, i32 2
  %29 = load i32, ptr %28, align 8, !tbaa !154
  store i32 %29, ptr %13, align 4, !tbaa !34
  call void @llvm.lifetime.start.p0(i64 4, ptr %14) #12
  %30 = load i32, ptr %9, align 4, !tbaa !34
  %31 = load i32, ptr %7, align 4, !tbaa !34
  %32 = sub nsw i32 %30, %31
  store i32 %32, ptr %14, align 4, !tbaa !34
  call void @llvm.lifetime.start.p0(i64 4, ptr %15) #12
  %33 = load i32, ptr %10, align 4, !tbaa !34
  %34 = load i32, ptr %8, align 4, !tbaa !34
  %35 = sub nsw i32 %33, %34
  store i32 %35, ptr %15, align 4, !tbaa !34
  call void @llvm.lifetime.start.p0(i64 4, ptr %16) #12
  call void @llvm.lifetime.start.p0(i64 4, ptr %17) #12
  call void @llvm.lifetime.start.p0(i64 4, ptr %18) #12
  call void @llvm.lifetime.start.p0(i64 4, ptr %19) #12
  call void @llvm.lifetime.start.p0(i64 8, ptr %20) #12
  store i64 0, ptr %20, align 8, !tbaa !116
  %36 = load i32, ptr %7, align 4, !tbaa !34
  %37 = load ptr, ptr %6, align 8, !tbaa !66
  %38 = getelementptr inbounds nuw %struct.AVMotionEstContext, ptr %37, i32 0, i32 7
  %39 = load i32, ptr %38, align 4, !tbaa !155
  %40 = load ptr, ptr %6, align 8, !tbaa !66
  %41 = getelementptr inbounds nuw %struct.AVMotionEstContext, ptr %40, i32 0, i32 8
  %42 = load i32, ptr %41, align 8, !tbaa !156
  %43 = call i32 @av_clip_c(i32 noundef %36, i32 noundef %39, i32 noundef %42) #14
  store i32 %43, ptr %7, align 4, !tbaa !34
  %44 = load i32, ptr %8, align 4, !tbaa !34
  %45 = load ptr, ptr %6, align 8, !tbaa !66
  %46 = getelementptr inbounds nuw %struct.AVMotionEstContext, ptr %45, i32 0, i32 9
  %47 = load i32, ptr %46, align 4, !tbaa !157
  %48 = load ptr, ptr %6, align 8, !tbaa !66
  %49 = getelementptr inbounds nuw %struct.AVMotionEstContext, ptr %48, i32 0, i32 10
  %50 = load i32, ptr %49, align 8, !tbaa !158
  %51 = call i32 @av_clip_c(i32 noundef %44, i32 noundef %47, i32 noundef %50) #14
  store i32 %51, ptr %8, align 4, !tbaa !34
  %52 = load i32, ptr %9, align 4, !tbaa !34
  %53 = load i32, ptr %7, align 4, !tbaa !34
  %54 = sub nsw i32 %52, %53
  %55 = load i32, ptr %7, align 4, !tbaa !34
  %56 = load ptr, ptr %6, align 8, !tbaa !66
  %57 = getelementptr inbounds nuw %struct.AVMotionEstContext, ptr %56, i32 0, i32 7
  %58 = load i32, ptr %57, align 4, !tbaa !155
  %59 = sub nsw i32 %55, %58
  %60 = load ptr, ptr %6, align 8, !tbaa !66
  %61 = getelementptr inbounds nuw %struct.AVMotionEstContext, ptr %60, i32 0, i32 8
  %62 = load i32, ptr %61, align 8, !tbaa !156
  %63 = load i32, ptr %7, align 4, !tbaa !34
  %64 = sub nsw i32 %62, %63
  %65 = icmp sgt i32 %59, %64
  br i1 %65, label %66, label %72

66:                                               ; preds = %5
  %67 = load ptr, ptr %6, align 8, !tbaa !66
  %68 = getelementptr inbounds nuw %struct.AVMotionEstContext, ptr %67, i32 0, i32 8
  %69 = load i32, ptr %68, align 8, !tbaa !156
  %70 = load i32, ptr %7, align 4, !tbaa !34
  %71 = sub nsw i32 %69, %70
  br label %78

72:                                               ; preds = %5
  %73 = load i32, ptr %7, align 4, !tbaa !34
  %74 = load ptr, ptr %6, align 8, !tbaa !66
  %75 = getelementptr inbounds nuw %struct.AVMotionEstContext, ptr %74, i32 0, i32 7
  %76 = load i32, ptr %75, align 4, !tbaa !155
  %77 = sub nsw i32 %73, %76
  br label %78

78:                                               ; preds = %72, %66
  %79 = phi i32 [ %71, %66 ], [ %77, %72 ]
  %80 = sub nsw i32 0, %79
  %81 = load i32, ptr %7, align 4, !tbaa !34
  %82 = load ptr, ptr %6, align 8, !tbaa !66
  %83 = getelementptr inbounds nuw %struct.AVMotionEstContext, ptr %82, i32 0, i32 7
  %84 = load i32, ptr %83, align 4, !tbaa !155
  %85 = sub nsw i32 %81, %84
  %86 = load ptr, ptr %6, align 8, !tbaa !66
  %87 = getelementptr inbounds nuw %struct.AVMotionEstContext, ptr %86, i32 0, i32 8
  %88 = load i32, ptr %87, align 8, !tbaa !156
  %89 = load i32, ptr %7, align 4, !tbaa !34
  %90 = sub nsw i32 %88, %89
  %91 = icmp sgt i32 %85, %90
  br i1 %91, label %92, label %98

92:                                               ; preds = %78
  %93 = load ptr, ptr %6, align 8, !tbaa !66
  %94 = getelementptr inbounds nuw %struct.AVMotionEstContext, ptr %93, i32 0, i32 8
  %95 = load i32, ptr %94, align 8, !tbaa !156
  %96 = load i32, ptr %7, align 4, !tbaa !34
  %97 = sub nsw i32 %95, %96
  br label %104

98:                                               ; preds = %78
  %99 = load i32, ptr %7, align 4, !tbaa !34
  %100 = load ptr, ptr %6, align 8, !tbaa !66
  %101 = getelementptr inbounds nuw %struct.AVMotionEstContext, ptr %100, i32 0, i32 7
  %102 = load i32, ptr %101, align 4, !tbaa !155
  %103 = sub nsw i32 %99, %102
  br label %104

104:                                              ; preds = %98, %92
  %105 = phi i32 [ %97, %92 ], [ %103, %98 ]
  %106 = call i32 @av_clip_c(i32 noundef %54, i32 noundef %80, i32 noundef %105) #14
  store i32 %106, ptr %16, align 4, !tbaa !34
  %107 = load i32, ptr %10, align 4, !tbaa !34
  %108 = load i32, ptr %8, align 4, !tbaa !34
  %109 = sub nsw i32 %107, %108
  %110 = load i32, ptr %8, align 4, !tbaa !34
  %111 = load ptr, ptr %6, align 8, !tbaa !66
  %112 = getelementptr inbounds nuw %struct.AVMotionEstContext, ptr %111, i32 0, i32 9
  %113 = load i32, ptr %112, align 4, !tbaa !157
  %114 = sub nsw i32 %110, %113
  %115 = load ptr, ptr %6, align 8, !tbaa !66
  %116 = getelementptr inbounds nuw %struct.AVMotionEstContext, ptr %115, i32 0, i32 10
  %117 = load i32, ptr %116, align 8, !tbaa !158
  %118 = load i32, ptr %8, align 4, !tbaa !34
  %119 = sub nsw i32 %117, %118
  %120 = icmp sgt i32 %114, %119
  br i1 %120, label %121, label %127

121:                                              ; preds = %104
  %122 = load ptr, ptr %6, align 8, !tbaa !66
  %123 = getelementptr inbounds nuw %struct.AVMotionEstContext, ptr %122, i32 0, i32 10
  %124 = load i32, ptr %123, align 8, !tbaa !158
  %125 = load i32, ptr %8, align 4, !tbaa !34
  %126 = sub nsw i32 %124, %125
  br label %133

127:                                              ; preds = %104
  %128 = load i32, ptr %8, align 4, !tbaa !34
  %129 = load ptr, ptr %6, align 8, !tbaa !66
  %130 = getelementptr inbounds nuw %struct.AVMotionEstContext, ptr %129, i32 0, i32 9
  %131 = load i32, ptr %130, align 4, !tbaa !157
  %132 = sub nsw i32 %128, %131
  br label %133

133:                                              ; preds = %127, %121
  %134 = phi i32 [ %126, %121 ], [ %132, %127 ]
  %135 = sub nsw i32 0, %134
  %136 = load i32, ptr %8, align 4, !tbaa !34
  %137 = load ptr, ptr %6, align 8, !tbaa !66
  %138 = getelementptr inbounds nuw %struct.AVMotionEstContext, ptr %137, i32 0, i32 9
  %139 = load i32, ptr %138, align 4, !tbaa !157
  %140 = sub nsw i32 %136, %139
  %141 = load ptr, ptr %6, align 8, !tbaa !66
  %142 = getelementptr inbounds nuw %struct.AVMotionEstContext, ptr %141, i32 0, i32 10
  %143 = load i32, ptr %142, align 8, !tbaa !158
  %144 = load i32, ptr %8, align 4, !tbaa !34
  %145 = sub nsw i32 %143, %144
  %146 = icmp sgt i32 %140, %145
  br i1 %146, label %147, label %153

147:                                              ; preds = %133
  %148 = load ptr, ptr %6, align 8, !tbaa !66
  %149 = getelementptr inbounds nuw %struct.AVMotionEstContext, ptr %148, i32 0, i32 10
  %150 = load i32, ptr %149, align 8, !tbaa !158
  %151 = load i32, ptr %8, align 4, !tbaa !34
  %152 = sub nsw i32 %150, %151
  br label %159

153:                                              ; preds = %133
  %154 = load i32, ptr %8, align 4, !tbaa !34
  %155 = load ptr, ptr %6, align 8, !tbaa !66
  %156 = getelementptr inbounds nuw %struct.AVMotionEstContext, ptr %155, i32 0, i32 9
  %157 = load i32, ptr %156, align 4, !tbaa !157
  %158 = sub nsw i32 %154, %157
  br label %159

159:                                              ; preds = %153, %147
  %160 = phi i32 [ %152, %147 ], [ %158, %153 ]
  %161 = call i32 @av_clip_c(i32 noundef %109, i32 noundef %135, i32 noundef %160) #14
  store i32 %161, ptr %17, align 4, !tbaa !34
  %162 = load i32, ptr %8, align 4, !tbaa !34
  %163 = load i32, ptr %17, align 4, !tbaa !34
  %164 = add nsw i32 %162, %163
  %165 = load i32, ptr %13, align 4, !tbaa !34
  %166 = mul nsw i32 %164, %165
  %167 = load ptr, ptr %11, align 8, !tbaa !102
  %168 = sext i32 %166 to i64
  %169 = getelementptr inbounds i8, ptr %167, i64 %168
  store ptr %169, ptr %11, align 8, !tbaa !102
  %170 = load i32, ptr %8, align 4, !tbaa !34
  %171 = load i32, ptr %17, align 4, !tbaa !34
  %172 = sub nsw i32 %170, %171
  %173 = load i32, ptr %13, align 4, !tbaa !34
  %174 = mul nsw i32 %172, %173
  %175 = load ptr, ptr %12, align 8, !tbaa !102
  %176 = sext i32 %174 to i64
  %177 = getelementptr inbounds i8, ptr %175, i64 %176
  store ptr %177, ptr %12, align 8, !tbaa !102
  store i32 0, ptr %19, align 4, !tbaa !34
  br label %178

178:                                              ; preds = %292, %159
  %179 = load i32, ptr %19, align 4, !tbaa !34
  %180 = load ptr, ptr %6, align 8, !tbaa !66
  %181 = getelementptr inbounds nuw %struct.AVMotionEstContext, ptr %180, i32 0, i32 3
  %182 = load i32, ptr %181, align 4, !tbaa !159
  %183 = icmp slt i32 %179, %182
  br i1 %183, label %184, label %295

184:                                              ; preds = %178
  store i32 0, ptr %18, align 4, !tbaa !34
  br label %185

185:                                              ; preds = %288, %184
  %186 = load i32, ptr %18, align 4, !tbaa !34
  %187 = load ptr, ptr %6, align 8, !tbaa !66
  %188 = getelementptr inbounds nuw %struct.AVMotionEstContext, ptr %187, i32 0, i32 3
  %189 = load i32, ptr %188, align 4, !tbaa !159
  %190 = icmp slt i32 %186, %189
  br i1 %190, label %191, label %291

191:                                              ; preds = %185
  %192 = load ptr, ptr %11, align 8, !tbaa !102
  %193 = load i32, ptr %7, align 4, !tbaa !34
  %194 = load i32, ptr %16, align 4, !tbaa !34
  %195 = add nsw i32 %193, %194
  %196 = load i32, ptr %18, align 4, !tbaa !34
  %197 = add nsw i32 %195, %196
  %198 = load i32, ptr %19, align 4, !tbaa !34
  %199 = load i32, ptr %13, align 4, !tbaa !34
  %200 = mul nsw i32 %198, %199
  %201 = add nsw i32 %197, %200
  %202 = sext i32 %201 to i64
  %203 = getelementptr inbounds i8, ptr %192, i64 %202
  %204 = load i8, ptr %203, align 1, !tbaa !130
  %205 = zext i8 %204 to i32
  %206 = load ptr, ptr %12, align 8, !tbaa !102
  %207 = load i32, ptr %7, align 4, !tbaa !34
  %208 = load i32, ptr %16, align 4, !tbaa !34
  %209 = sub nsw i32 %207, %208
  %210 = load i32, ptr %18, align 4, !tbaa !34
  %211 = add nsw i32 %209, %210
  %212 = load i32, ptr %19, align 4, !tbaa !34
  %213 = load i32, ptr %13, align 4, !tbaa !34
  %214 = mul nsw i32 %212, %213
  %215 = add nsw i32 %211, %214
  %216 = sext i32 %215 to i64
  %217 = getelementptr inbounds i8, ptr %206, i64 %216
  %218 = load i8, ptr %217, align 1, !tbaa !130
  %219 = zext i8 %218 to i32
  %220 = sub nsw i32 %205, %219
  %221 = icmp sge i32 %220, 0
  br i1 %221, label %222, label %252

222:                                              ; preds = %191
  %223 = load ptr, ptr %11, align 8, !tbaa !102
  %224 = load i32, ptr %7, align 4, !tbaa !34
  %225 = load i32, ptr %16, align 4, !tbaa !34
  %226 = add nsw i32 %224, %225
  %227 = load i32, ptr %18, align 4, !tbaa !34
  %228 = add nsw i32 %226, %227
  %229 = load i32, ptr %19, align 4, !tbaa !34
  %230 = load i32, ptr %13, align 4, !tbaa !34
  %231 = mul nsw i32 %229, %230
  %232 = add nsw i32 %228, %231
  %233 = sext i32 %232 to i64
  %234 = getelementptr inbounds i8, ptr %223, i64 %233
  %235 = load i8, ptr %234, align 1, !tbaa !130
  %236 = zext i8 %235 to i32
  %237 = load ptr, ptr %12, align 8, !tbaa !102
  %238 = load i32, ptr %7, align 4, !tbaa !34
  %239 = load i32, ptr %16, align 4, !tbaa !34
  %240 = sub nsw i32 %238, %239
  %241 = load i32, ptr %18, align 4, !tbaa !34
  %242 = add nsw i32 %240, %241
  %243 = load i32, ptr %19, align 4, !tbaa !34
  %244 = load i32, ptr %13, align 4, !tbaa !34
  %245 = mul nsw i32 %243, %244
  %246 = add nsw i32 %242, %245
  %247 = sext i32 %246 to i64
  %248 = getelementptr inbounds i8, ptr %237, i64 %247
  %249 = load i8, ptr %248, align 1, !tbaa !130
  %250 = zext i8 %249 to i32
  %251 = sub nsw i32 %236, %250
  br label %283

252:                                              ; preds = %191
  %253 = load ptr, ptr %11, align 8, !tbaa !102
  %254 = load i32, ptr %7, align 4, !tbaa !34
  %255 = load i32, ptr %16, align 4, !tbaa !34
  %256 = add nsw i32 %254, %255
  %257 = load i32, ptr %18, align 4, !tbaa !34
  %258 = add nsw i32 %256, %257
  %259 = load i32, ptr %19, align 4, !tbaa !34
  %260 = load i32, ptr %13, align 4, !tbaa !34
  %261 = mul nsw i32 %259, %260
  %262 = add nsw i32 %258, %261
  %263 = sext i32 %262 to i64
  %264 = getelementptr inbounds i8, ptr %253, i64 %263
  %265 = load i8, ptr %264, align 1, !tbaa !130
  %266 = zext i8 %265 to i32
  %267 = load ptr, ptr %12, align 8, !tbaa !102
  %268 = load i32, ptr %7, align 4, !tbaa !34
  %269 = load i32, ptr %16, align 4, !tbaa !34
  %270 = sub nsw i32 %268, %269
  %271 = load i32, ptr %18, align 4, !tbaa !34
  %272 = add nsw i32 %270, %271
  %273 = load i32, ptr %19, align 4, !tbaa !34
  %274 = load i32, ptr %13, align 4, !tbaa !34
  %275 = mul nsw i32 %273, %274
  %276 = add nsw i32 %272, %275
  %277 = sext i32 %276 to i64
  %278 = getelementptr inbounds i8, ptr %267, i64 %277
  %279 = load i8, ptr %278, align 1, !tbaa !130
  %280 = zext i8 %279 to i32
  %281 = sub nsw i32 %266, %280
  %282 = sub nsw i32 0, %281
  br label %283

283:                                              ; preds = %252, %222
  %284 = phi i32 [ %251, %222 ], [ %282, %252 ]
  %285 = sext i32 %284 to i64
  %286 = load i64, ptr %20, align 8, !tbaa !116
  %287 = add i64 %286, %285
  store i64 %287, ptr %20, align 8, !tbaa !116
  br label %288

288:                                              ; preds = %283
  %289 = load i32, ptr %18, align 4, !tbaa !34
  %290 = add nsw i32 %289, 1
  store i32 %290, ptr %18, align 4, !tbaa !34
  br label %185, !llvm.loop !160

291:                                              ; preds = %185
  br label %292

292:                                              ; preds = %291
  %293 = load i32, ptr %19, align 4, !tbaa !34
  %294 = add nsw i32 %293, 1
  store i32 %294, ptr %19, align 4, !tbaa !34
  br label %178, !llvm.loop !161

295:                                              ; preds = %178
  %296 = load i64, ptr %20, align 8, !tbaa !116
  %297 = load i32, ptr %14, align 4, !tbaa !34
  %298 = load ptr, ptr %6, align 8, !tbaa !66
  %299 = getelementptr inbounds nuw %struct.AVMotionEstContext, ptr %298, i32 0, i32 11
  %300 = load i32, ptr %299, align 4, !tbaa !145
  %301 = sub nsw i32 %297, %300
  %302 = icmp sge i32 %301, 0
  br i1 %302, label %303, label %309

303:                                              ; preds = %295
  %304 = load i32, ptr %14, align 4, !tbaa !34
  %305 = load ptr, ptr %6, align 8, !tbaa !66
  %306 = getelementptr inbounds nuw %struct.AVMotionEstContext, ptr %305, i32 0, i32 11
  %307 = load i32, ptr %306, align 4, !tbaa !145
  %308 = sub nsw i32 %304, %307
  br label %316

309:                                              ; preds = %295
  %310 = load i32, ptr %14, align 4, !tbaa !34
  %311 = load ptr, ptr %6, align 8, !tbaa !66
  %312 = getelementptr inbounds nuw %struct.AVMotionEstContext, ptr %311, i32 0, i32 11
  %313 = load i32, ptr %312, align 4, !tbaa !145
  %314 = sub nsw i32 %310, %313
  %315 = sub nsw i32 0, %314
  br label %316

316:                                              ; preds = %309, %303
  %317 = phi i32 [ %308, %303 ], [ %315, %309 ]
  %318 = load i32, ptr %15, align 4, !tbaa !34
  %319 = load ptr, ptr %6, align 8, !tbaa !66
  %320 = getelementptr inbounds nuw %struct.AVMotionEstContext, ptr %319, i32 0, i32 12
  %321 = load i32, ptr %320, align 8, !tbaa !146
  %322 = sub nsw i32 %318, %321
  %323 = icmp sge i32 %322, 0
  br i1 %323, label %324, label %330

324:                                              ; preds = %316
  %325 = load i32, ptr %15, align 4, !tbaa !34
  %326 = load ptr, ptr %6, align 8, !tbaa !66
  %327 = getelementptr inbounds nuw %struct.AVMotionEstContext, ptr %326, i32 0, i32 12
  %328 = load i32, ptr %327, align 8, !tbaa !146
  %329 = sub nsw i32 %325, %328
  br label %337

330:                                              ; preds = %316
  %331 = load i32, ptr %15, align 4, !tbaa !34
  %332 = load ptr, ptr %6, align 8, !tbaa !66
  %333 = getelementptr inbounds nuw %struct.AVMotionEstContext, ptr %332, i32 0, i32 12
  %334 = load i32, ptr %333, align 8, !tbaa !146
  %335 = sub nsw i32 %331, %334
  %336 = sub nsw i32 0, %335
  br label %337

337:                                              ; preds = %330, %324
  %338 = phi i32 [ %329, %324 ], [ %336, %330 ]
  %339 = add nsw i32 %317, %338
  %340 = mul nsw i32 %339, 64
  %341 = sext i32 %340 to i64
  %342 = add i64 %296, %341
  call void @llvm.lifetime.end.p0(i64 8, ptr %20) #12
  call void @llvm.lifetime.end.p0(i64 4, ptr %19) #12
  call void @llvm.lifetime.end.p0(i64 4, ptr %18) #12
  call void @llvm.lifetime.end.p0(i64 4, ptr %17) #12
  call void @llvm.lifetime.end.p0(i64 4, ptr %16) #12
  call void @llvm.lifetime.end.p0(i64 4, ptr %15) #12
  call void @llvm.lifetime.end.p0(i64 4, ptr %14) #12
  call void @llvm.lifetime.end.p0(i64 4, ptr %13) #12
  call void @llvm.lifetime.end.p0(i64 8, ptr %12) #12
  call void @llvm.lifetime.end.p0(i64 8, ptr %11) #12
  ret i64 %342
}