; Function Attrs: nofree norecurse nosync nounwind memory(read, inaccessiblemem: none) uwtable
define internal fastcc i64 @get_sbad(ptr noundef readonly captures(none) %0, i32 noundef %1, i32 noundef %2, i32 noundef %3, i32 noundef %4) unnamed_addr #6 {
  %6 = load ptr, ptr %0, align 8, !tbaa !94
  %7 = getelementptr inbounds nuw i8, ptr %0, i64 8
  %8 = load ptr, ptr %7, align 8, !tbaa !95
  %9 = getelementptr inbounds nuw i8, ptr %0, i64 16
  %10 = load i32, ptr %9, align 8, !tbaa !96
  %11 = getelementptr inbounds nuw i8, ptr %0, i64 44
  %12 = load i32, ptr %11, align 4, !tbaa !97
  %13 = getelementptr inbounds nuw i8, ptr %0, i64 48
  %14 = load i32, ptr %13, align 8, !tbaa !98
  %15 = icmp slt i32 %2, %12
  %..i128 = tail call i32 @llvm.smin.i32(i32 %2, i32 %14)
  %.0.i129 = select i1 %15, i32 %12, i32 %..i128
  %16 = sub nsw i32 %4, %.0.i129
  %17 = sub nsw i32 %.0.i129, %12
  %18 = sub nsw i32 %14, %.0.i129
  %19 = tail call i32 @llvm.smin.i32(i32 %17, i32 %18)
  %20 = sub nsw i32 0, %19
  %21 = icmp slt i32 %16, %20
  %..i132 = tail call i32 @llvm.smin.i32(i32 %16, i32 %19)
  %.0.i133 = select i1 %21, i32 %20, i32 %..i132
  %22 = add nsw i32 %.0.i133, %.0.i129
  %23 = mul nsw i32 %22, %10
  %24 = sext i32 %23 to i64
  %25 = getelementptr inbounds i8, ptr %6, i64 %24
  %26 = sub nsw i32 %.0.i129, %.0.i133
  %27 = mul nsw i32 %26, %10
  %28 = sext i32 %27 to i64
  %29 = getelementptr inbounds i8, ptr %8, i64 %28
  %30 = getelementptr inbounds nuw i8, ptr %0, i64 20
  %31 = load i32, ptr %30, align 4, !tbaa !99
  %32 = icmp sgt i32 %31, 0
  br i1 %32, label %.preheader.lr.ph, label %._crit_edge143

.preheader.lr.ph:                                 ; preds = %5
  %33 = getelementptr inbounds nuw i8, ptr %0, i64 36
  %34 = load i32, ptr %33, align 4, !tbaa !100
  %35 = icmp slt i32 %1, %34
  %36 = getelementptr inbounds nuw i8, ptr %0, i64 40
  %37 = load i32, ptr %36, align 8, !tbaa !101
  %..i = tail call i32 @llvm.smin.i32(i32 %1, i32 %37)
  %.0.i = select i1 %35, i32 %34, i32 %..i
  %38 = sub nsw i32 %3, %.0.i
  %39 = sub nsw i32 %.0.i, %34
  %40 = sub nsw i32 %37, %.0.i
  %. = tail call i32 @llvm.smin.i32(i32 %39, i32 %40)
  %41 = sub nsw i32 0, %.
  %42 = icmp slt i32 %38, %41
  %..i130 = tail call i32 @llvm.smin.i32(i32 %38, i32 %.)
  %.0.i131 = select i1 %42, i32 %41, i32 %..i130
  %43 = add nsw i32 %.0.i131, %.0.i
  %44 = sub i32 %.0.i, %.0.i131
  %wide.trip.count = zext nneg i32 %31 to i64
  br label %.preheader.us

.preheader.us:                                    ; preds = %._crit_edge.us, %.preheader.lr.ph
  %.0142.us = phi i64 [ 0, %.preheader.lr.ph ], [ %63, %._crit_edge.us ]
  %.0112141.us = phi i32 [ 0, %.preheader.lr.ph ], [ %64, %._crit_edge.us ]
  %45 = mul nsw i32 %.0112141.us, %10
  %46 = add i32 %43, %45
  %47 = add i32 %44, %45
  br label %48

48:                                               ; preds = %.preheader.us, %48
  %indvars.iv = phi i64 [ 0, %.preheader.us ], [ %indvars.iv.next, %48 ]
  %.1140.us = phi i64 [ %.0142.us, %.preheader.us ], [ %63, %48 ]
  %49 = trunc nuw nsw i64 %indvars.iv to i32
  %50 = add i32 %46, %49
  %51 = sext i32 %50 to i64
  %52 = getelementptr inbounds i8, ptr %25, i64 %51
  %53 = load i8, ptr %52, align 1, !tbaa !76
  %54 = zext i8 %53 to i32
  %55 = add i32 %47, %49
  %56 = sext i32 %55 to i64
  %57 = getelementptr inbounds i8, ptr %29, i64 %56
  %58 = load i8, ptr %57, align 1, !tbaa !76
  %59 = zext i8 %58 to i32
  %60 = sub nsw i32 %54, %59
  %61 = tail call i32 @llvm.abs.i32(i32 %60, i1 true)
  %62 = zext nneg i32 %61 to i64
  %63 = add i64 %.1140.us, %62
  %indvars.iv.next = add nuw nsw i64 %indvars.iv, 1
  %exitcond.not = icmp eq i64 %indvars.iv.next, %wide.trip.count
  br i1 %exitcond.not, label %._crit_edge.us, label %48, !llvm.loop !102

._crit_edge.us:                                   ; preds = %48
  %64 = add nuw nsw i32 %.0112141.us, 1
  %exitcond146.not = icmp eq i32 %64, %31
  br i1 %exitcond146.not, label %._crit_edge143, label %.preheader.us, !llvm.loop !103

._crit_edge143:                                   ; preds = %._crit_edge.us, %5
  %.0.lcssa = phi i64 [ 0, %5 ], [ %63, %._crit_edge.us ]
  %65 = getelementptr inbounds nuw i8, ptr %0, i64 52
  %66 = load i32, ptr %65, align 4, !tbaa !104
  %67 = add i32 %1, %66
  %68 = sub i32 %3, %67
  %69 = tail call i32 @llvm.abs.i32(i32 %68, i1 true)
  %70 = getelementptr inbounds nuw i8, ptr %0, i64 56
  %71 = load i32, ptr %70, align 8, !tbaa !105
  %72 = add i32 %2, %71
  %73 = sub i32 %4, %72
  %74 = tail call i32 @llvm.abs.i32(i32 %73, i1 true)
  %75 = add nuw nsw i32 %74, %69
  %76 = shl nsw i32 %75, 6
  %77 = zext nneg i32 %76 to i64
  %78 = add i64 %.0.lcssa, %77
  ret i64 %78
}